; ModuleID = 'source-C-CXX/25/1148.c'
source_filename = "source-C-CXX/25/1148.c"
target datalayout = "e-m:e-p270:32:32-p271:32:32-p272:64:64-i64:64-f80:128-n8:16:32:64-S128"
target triple = "x86_64-pc-linux-gnu"

@.str = private unnamed_addr constant [3 x i8] c"%s\00", align 1

; Function Attrs: nounwind sspstrong uwtable
define dso_local void @main() local_unnamed_addr #0 {
  %1 = alloca [101 x i8], align 16
  %2 = alloca [101 x i8], align 16
  %3 = getelementptr inbounds [101 x i8], [101 x i8]* %1, i64 0, i64 0
  call void @llvm.lifetime.start.p0i8(i64 101, i8* nonnull %3) #6
  call void @llvm.memset.p0i8.i64(i8* noundef nonnull align 16 dereferenceable(101) %3, i8 0, i64 101, i1 false)
  %4 = getelementptr inbounds [101 x i8], [101 x i8]* %2, i64 0, i64 0
  call void @llvm.lifetime.start.p0i8(i64 101, i8* nonnull %4) #6
  call void @llvm.memset.p0i8.i64(i8* noundef nonnull align 16 dereferenceable(101) %4, i8 0, i64 101, i1 false)
  %5 = call i32 (i8*, ...) bitcast (i32 (...)* @gets to i32 (i8*, ...)*)(i8* nonnull %3) #6
  %6 = call i64 @strlen(i8* noundef nonnull %3) #7
  br label %7

7:                                                ; preds = %7, %0
  %8 = phi i64 [ %12, %7 ], [ 0, %0 ]
  %9 = getelementptr inbounds [101 x i8], [101 x i8]* %1, i64 0, i64 %8
  %10 = load i8, i8* %9, align 1, !tbaa !5
  %11 = icmp eq i8 %10, 32
  %12 = add nuw i64 %8, 1
  br i1 %11, label %7, label %13, !llvm.loop !8

13:                                               ; preds = %7
  %14 = trunc i64 %6 to i32
  %15 = trunc i64 %8 to i32
  store i8 %10, i8* %4, align 16, !tbaa !5
  %16 = add i32 %15, 1
  %17 = icmp slt i32 %16, %14
  br i1 %17, label %18, label %41

18:                                               ; preds = %13
  %19 = zext i32 %16 to i64
  br label %20

20:                                               ; preds = %18, %36
  %21 = phi i64 [ %19, %18 ], [ %38, %36 ]
  %22 = phi i32 [ %16, %18 ], [ %39, %36 ]
  %23 = phi i32 [ 0, %18 ], [ %37, %36 ]
  %24 = getelementptr inbounds [101 x i8], [101 x i8]* %1, i64 0, i64 %21
  %25 = load i8, i8* %24, align 1, !tbaa !5
  %26 = icmp eq i8 %25, 32
  br i1 %26, label %27, label %32

27:                                               ; preds = %20
  %28 = sext i32 %23 to i64
  %29 = getelementptr inbounds [101 x i8], [101 x i8]* %2, i64 0, i64 %28
  %30 = load i8, i8* %29, align 1, !tbaa !5
  %31 = icmp eq i8 %30, 32
  br i1 %31, label %36, label %32

32:                                               ; preds = %27, %20
  %33 = add nsw i32 %23, 1
  %34 = sext i32 %33 to i64
  %35 = getelementptr inbounds [101 x i8], [101 x i8]* %2, i64 0, i64 %34
  store i8 %25, i8* %35, align 1, !tbaa !5
  br label %36

36:                                               ; preds = %27, %32
  %37 = phi i32 [ %23, %27 ], [ %33, %32 ]
  %38 = add nuw nsw i64 %21, 1
  %39 = add nuw nsw i32 %22, 1
  %40 = icmp eq i32 %39, %14
  br i1 %40, label %41, label %20, !llvm.loop !10

41:                                               ; preds = %36, %13
  %42 = call i64 @strlen(i8* noundef nonnull %4) #7
  %43 = shl i64 %42, 32
  %44 = add i64 %43, -4294967296
  %45 = ashr exact i64 %44, 32
  %46 = getelementptr inbounds [101 x i8], [101 x i8]* %2, i64 0, i64 %45
  %47 = load i8, i8* %46, align 1, !tbaa !5
  %48 = icmp eq i8 %47, 32
  br i1 %48, label %49, label %50

49:                                               ; preds = %41
  store i8 0, i8* %46, align 1, !tbaa !5
  br label %50

50:                                               ; preds = %49, %41
  %51 = call i32 (i8*, ...) @printf(i8* nonnull dereferenceable(1) getelementptr inbounds ([3 x i8], [3 x i8]* @.str, i64 0, i64 0), i8* nonnull %4)
  call void @llvm.lifetime.end.p0i8(i64 101, i8* nonnull %4) #6
  call void @llvm.lifetime.end.p0i8(i64 101, i8* nonnull %3) #6
  ret void
}

; Function Attrs: argmemonly mustprogress nofree nosync nounwind willreturn
declare void @llvm.lifetime.start.p0i8(i64 immarg, i8* nocapture) #1

; Function Attrs: argmemonly mustprogress nofree nounwind willreturn writeonly
declare void @llvm.memset.p0i8.i64(i8* nocapture writeonly, i8, i64, i1 immarg) #2

declare i32 @gets(...) local_unnamed_addr #3

; Function Attrs: argmemonly mustprogress nofree nounwind readonly willreturn
declare i64 @strlen(i8* nocapture) local_unnamed_addr #4

; Function Attrs: nofree nounwind
declare noundef i32 @printf(i8* nocapture noundef readonly, ...) local_unnamed_addr #5

; Function Attrs: argmemonly mustprogress nofree nosync nounwind willreturn
declare void @llvm.lifetime.end.p0i8(i64 immarg, i8* nocapture) #1


!llvm.module.flags = !{!0, !1, !2, !3}
!llvm.ident = !{!4}

!0 = !{i32 1, !"wchar_size", i32 4}
!1 = !{i32 7, !"PIC Level", i32 2}
!2 = !{i32 7, !"PIE Level", i32 2}
!3 = !{i32 7, !"uwtable", i32 1}
!4 = !{!"clang version 13.0.0"}
!5 = !{!6, !6, i64 0}
!6 = !{!"omnipotent char", !7, i64 0}
!7 = !{!"Simple C/C++ TBAA"}
!8 = distinct !{!8, !9}
!9 = !{!"llvm.loop.mustprogress"}
!10 = distinct !{!10, !9}
